; Function Attrs: mustprogress nofree norecurse nosync nounwind memory(argmem: readwrite) uwtable
define hidden void @_ZN3ue213make_caselessEPNS_9CharReachE(ptr noundef captures(none) %0) local_unnamed_addr #6 {
  br label %3

2:                                                ; preds = %24
  ret void

3:                                                ; preds = %1, %24
  %indvars.iv = phi i64 [ 65, %1 ], [ %indvars.iv.next, %24 ]
  %4 = lshr i64 %indvars.iv, 6
  %5 = getelementptr inbounds nuw [4 x i64], ptr %0, i64 0, i64 %4
  %6 = load i64, ptr %5, align 8
  %7 = and i64 %indvars.iv, 63
  %8 = shl nuw i64 1, %7
  %9 = and i64 %6, %8
  %.not = icmp eq i64 %9, 0
  %10 = add nuw i64 %indvars.iv, 32
  br i1 %.not, label %11, label %._crit_edge

._crit_edge:                                      ; preds = %3
  %.pre16 = and i64 %10, 63
  %.pre18 = shl nuw i64 1, %.pre16
  %.pre14 = lshr i64 %10, 6
  %.pre20 = and i64 %.pre14, 3
  br label %19

11:                                               ; preds = %3
  %12 = lshr i64 %10, 6
  %13 = and i64 %12, 3
  %14 = getelementptr inbounds nuw [4 x i64], ptr %0, i64 0, i64 %13
  %15 = load i64, ptr %14, align 8
  %16 = and i64 %10, 63
  %17 = shl nuw i64 1, %16
  %18 = and i64 %15, %17
  %.not11 = icmp eq i64 %18, 0
  br i1 %.not11, label %24, label %19

19:                                               ; preds = %._crit_edge, %11
  %.pre-phi21 = phi i64 [ %.pre20, %._crit_edge ], [ %13, %11 ]
  %.pre-phi19 = phi i64 [ %.pre18, %._crit_edge ], [ %17, %11 ]
  %20 = or i64 %6, %8
  store i64 %20, ptr %5, align 8
  %21 = getelementptr inbounds nuw [4 x i64], ptr %0, i64 0, i64 %.pre-phi21
  %22 = load i64, ptr %21, align 8
  %23 = or i64 %22, %.pre-phi19
  store i64 %23, ptr %21, align 8
  br label %24

24:                                               ; preds = %11, %19
  %indvars.iv.next = add nuw nsw i64 %indvars.iv, 1
  %exitcond.not = icmp eq i64 %indvars.iv.next, 91
  br i1 %exitcond.not, label %2, label %3, !llvm.loop !19
}